; Function Attrs: mustprogress uwtable
define void @rocksdb_flush_wal(ptr noundef readonly captures(none) %0, i8 noundef zeroext %1, ptr noundef captures(none) %2) local_unnamed_addr #0 personality ptr @__gxx_personality_v0 {
  %4 = alloca %"class.rocksdb::Status", align 8
  call void @llvm.lifetime.start.p0(i64 16, ptr nonnull %4) #43
  %5 = load ptr, ptr %0, align 8, !tbaa !26
  %6 = icmp ne i8 %1, 0
  %7 = load ptr, ptr %5, align 8, !tbaa !23
  %8 = getelementptr inbounds nuw i8, ptr %7, i64 840
  %9 = load ptr, ptr %8, align 8
  call void %9(ptr dead_on_unwind nonnull writable sret(%"class.rocksdb::Status") align 8 %4, ptr noundef nonnull align 8 dereferenceable(8) %5, i1 noundef zeroext %6)
  %10 = invoke fastcc noundef zeroext i1 @_ZL9SaveErrorPPcRKN7rocksdb6StatusE(ptr noundef %2, ptr noundef nonnull align 8 dereferenceable(16) %4)
          to label %11 unwind label %14

11:                                               ; preds = %3
  %12 = getelementptr inbounds nuw i8, ptr %4, i64 8
  %13 = load ptr, ptr %12, align 8, !tbaa !25
  %.not.i.i = icmp eq ptr %13, null
  br i1 %.not.i.i, label %_ZN7rocksdb6StatusD2Ev.exit, label %_ZNKSt14default_deleteIA_KcEclIS0_EENSt9enable_ifIXsr14is_convertibleIPA_T_PS1_EE5valueEvE4typeEPS5_.exit.i.i

_ZNKSt14default_deleteIA_KcEclIS0_EENSt9enable_ifIXsr14is_convertibleIPA_T_PS1_EE5valueEvE4typeEPS5_.exit.i.i: ; preds = %11
  call void @_ZdaPv(ptr noundef nonnull %13) #45
  br label %_ZN7rocksdb6StatusD2Ev.exit

_ZN7rocksdb6StatusD2Ev.exit:                      ; preds = %11, %_ZNKSt14default_deleteIA_KcEclIS0_EENSt9enable_ifIXsr14is_convertibleIPA_T_PS1_EE5valueEvE4typeEPS5_.exit.i.i
  call void @llvm.lifetime.end.p0(i64 16, ptr nonnull %4) #43
  ret void

14:                                               ; preds = %3
  %15 = landingpad { ptr, i32 }
          cleanup
  %16 = getelementptr inbounds nuw i8, ptr %4, i64 8
  %17 = load ptr, ptr %16, align 8, !tbaa !25
  %.not.i.i4 = icmp eq ptr %17, null
  br i1 %.not.i.i4, label %_ZN7rocksdb6StatusD2Ev.exit6, label %_ZNKSt14default_deleteIA_KcEclIS0_EENSt9enable_ifIXsr14is_convertibleIPA_T_PS1_EE5valueEvE4typeEPS5_.exit.i.i5

_ZNKSt14default_deleteIA_KcEclIS0_EENSt9enable_ifIXsr14is_convertibleIPA_T_PS1_EE5valueEvE4typeEPS5_.exit.i.i5: ; preds = %14
  call void @_ZdaPv(ptr noundef nonnull %17) #45
  br label %_ZN7rocksdb6StatusD2Ev.exit6

_ZN7rocksdb6StatusD2Ev.exit6:                     ; preds = %14, %_ZNKSt14default_deleteIA_KcEclIS0_EENSt9enable_ifIXsr14is_convertibleIPA_T_PS1_EE5valueEvE4typeEPS5_.exit.i.i5
  call void @llvm.lifetime.end.p0(i64 16, ptr nonnull %4) #43
  resume { ptr, i32 } %15
}